target datalayout = "e-m:e-p270:32:32-p271:32:32-p272:64:64-i64:64-i128:128-f80:128-n8:16:32:64-S128"
target triple = "x86_64-unknown-linux-gnu"

%"class.zmq::stream_listener_base_t" = type { %"class.zmq::own_t.base", %"class.zmq::io_object_t", i32, ptr, ptr, %"class.std::__cxx11::basic_string" }
%"class.zmq::own_t.base" = type <{ %"class.zmq::object_t.base", [4 x i8], %"struct.zmq::options_t", i8, [7 x i8], %"class.zmq::atomic_counter_t", i64, ptr, %"class.std::set.28", i32 }>
%"class.zmq::object_t.base" = type <{ ptr, ptr, i32 }>
%"struct.zmq::options_t" = type { i32, i32, i64, i8, [256 x i8], i32, i32, i32, i32, i32, i32, i32, i32, i8, %"struct.zmq::atomic_value_t", i32, i32, i32, i32, i32, i32, i64, i32, i32, i8, i32, i8, i8, i8, i8, i8, %"class.std::__cxx11::basic_string", %"class.std::__cxx11::basic_string", %"class.std::__cxx11::basic_string", i32, i32, i32, i32, %"class.std::vector", %"class.std::set", %"class.std::set", %"class.std::set.6", i32, i32, %"class.std::__cxx11::basic_string", %"class.std::__cxx11::basic_string", %"class.std::__cxx11::basic_string", [32 x i8], [32 x i8], [32 x i8], %"class.std::__cxx11::basic_string", %"class.std::__cxx11::basic_string", i32, i32, i8, i32, i8, i32, i8, i16, i32, i32, i32, %"class.std::__cxx11::basic_string", i8, i8, i8, i32, i32, i8, i32, %"class.std::map", i32, %"class.std::__cxx11::basic_string", %"class.std::__cxx11::basic_string", %"class.std::__cxx11::basic_string", %"class.std::__cxx11::basic_string", i8, %"class.std::vector.21", i8, %"class.std::vector.21", i8, %"class.std::vector.21", i8, i32, i8, i32, i32, i32, i32, i32, i8, i32 }
%"struct.zmq::atomic_value_t" = type { %"struct.std::atomic" }
%"struct.std::atomic" = type { %"struct.std::__atomic_base" }
%"struct.std::__atomic_base" = type { i32 }
%"class.std::vector" = type { %"struct.std::_Vector_base" }
%"struct.std::_Vector_base" = type { %"struct.std::_Vector_base<zmq::tcp_address_mask_t, std::allocator<zmq::tcp_address_mask_t>>::_Vector_impl" }
%"struct.std::_Vector_base<zmq::tcp_address_mask_t, std::allocator<zmq::tcp_address_mask_t>>::_Vector_impl" = type { %"struct.std::_Vector_base<zmq::tcp_address_mask_t, std::allocator<zmq::tcp_address_mask_t>>::_Vector_impl_data" }
%"struct.std::_Vector_base<zmq::tcp_address_mask_t, std::allocator<zmq::tcp_address_mask_t>>::_Vector_impl_data" = type { ptr, ptr, ptr }
%"class.std::set" = type { %"class.std::_Rb_tree" }
%"class.std::_Rb_tree" = type { %"struct.std::_Rb_tree<unsigned int, unsigned int, std::_Identity<unsigned int>, std::less<unsigned int>>::_Rb_tree_impl" }
%"struct.std::_Rb_tree<unsigned int, unsigned int, std::_Identity<unsigned int>, std::less<unsigned int>>::_Rb_tree_impl" = type { %"struct.std::_Rb_tree_key_compare", %"struct.std::_Rb_tree_header" }
%"struct.std::_Rb_tree_key_compare" = type { %"struct.std::less" }
%"struct.std::less" = type { i8 }
%"struct.std::_Rb_tree_header" = type { %"struct.std::_Rb_tree_node_base", i64 }
%"struct.std::_Rb_tree_node_base" = type { i32, ptr, ptr, ptr }
%"class.std::set.6" = type { %"class.std::_Rb_tree.7" }
%"class.std::_Rb_tree.7" = type { %"struct.std::_Rb_tree<int, int, std::_Identity<int>, std::less<int>>::_Rb_tree_impl" }
%"struct.std::_Rb_tree<int, int, std::_Identity<int>, std::less<int>>::_Rb_tree_impl" = type { %"struct.std::_Rb_tree_key_compare.11", %"struct.std::_Rb_tree_header" }
%"struct.std::_Rb_tree_key_compare.11" = type { %"struct.std::less.12" }
%"struct.std::less.12" = type { i8 }
%"class.std::map" = type { %"class.std::_Rb_tree.14" }
%"class.std::_Rb_tree.14" = type { %"struct.std::_Rb_tree<std::__cxx11::basic_string<char>, std::pair<const std::__cxx11::basic_string<char>, std::__cxx11::basic_string<char>>, std::_Select1st<std::pair<const std::__cxx11::basic_string<char>, std::__cxx11::basic_string<char>>>, std::less<std::__cxx11::basic_string<char>>>::_Rb_tree_impl" }
%"struct.std::_Rb_tree<std::__cxx11::basic_string<char>, std::pair<const std::__cxx11::basic_string<char>, std::__cxx11::basic_string<char>>, std::_Select1st<std::pair<const std::__cxx11::basic_string<char>, std::__cxx11::basic_string<char>>>, std::less<std::__cxx11::basic_string<char>>>::_Rb_tree_impl" = type { %"struct.std::_Rb_tree_key_compare.18", %"struct.std::_Rb_tree_header" }
%"struct.std::_Rb_tree_key_compare.18" = type { %"struct.std::less.19" }
%"struct.std::less.19" = type { i8 }
%"class.std::vector.21" = type { %"struct.std::_Vector_base.22" }
%"struct.std::_Vector_base.22" = type { %"struct.std::_Vector_base<unsigned char, std::allocator<unsigned char>>::_Vector_impl" }
%"struct.std::_Vector_base<unsigned char, std::allocator<unsigned char>>::_Vector_impl" = type { %"struct.std::_Vector_base<unsigned char, std::allocator<unsigned char>>::_Vector_impl_data" }
%"struct.std::_Vector_base<unsigned char, std::allocator<unsigned char>>::_Vector_impl_data" = type { ptr, ptr, ptr }
%"class.zmq::atomic_counter_t" = type { %"struct.std::atomic.26", [4 x i8] }
%"struct.std::atomic.26" = type { %"struct.std::__atomic_base.27" }
%"struct.std::__atomic_base.27" = type { i32 }
%"class.std::set.28" = type { %"class.std::_Rb_tree.29" }
%"class.std::_Rb_tree.29" = type { %"struct.std::_Rb_tree<zmq::own_t *, zmq::own_t *, std::_Identity<zmq::own_t *>, std::less<zmq::own_t *>>::_Rb_tree_impl" }
%"struct.std::_Rb_tree<zmq::own_t *, zmq::own_t *, std::_Identity<zmq::own_t *>, std::less<zmq::own_t *>>::_Rb_tree_impl" = type { %"struct.std::_Rb_tree_key_compare.33", %"struct.std::_Rb_tree_header" }
%"struct.std::_Rb_tree_key_compare.33" = type { %"struct.std::less.34" }
%"struct.std::less.34" = type { i8 }
%"class.zmq::io_object_t" = type { %"struct.zmq::i_poll_events", ptr }
%"struct.zmq::i_poll_events" = type { ptr }
%"class.std::__cxx11::basic_string" = type { %"struct.std::__cxx11::basic_string<char>::_Alloc_hider", i64, %union.anon }
%"struct.std::__cxx11::basic_string<char>::_Alloc_hider" = type { ptr }
%union.anon = type { i64, [8 x i8] }

@stderr = external global ptr, align 8
@.str = private unnamed_addr constant [30 x i8] c"Assertion failed: %s (%s:%d)\0A\00", align 1
@.str.1 = private unnamed_addr constant [17 x i8] c"_s != retired_fd\00", align 1
@.str.2 = private unnamed_addr constant [112 x i8] c"generated/home/dtcxzyw/WorkSpace/Projects/compilers/llvm-opt-benchmark/bench/libzmq/libzmq/src/ipc_listener.cpp\00", align 1
@.str.3 = private unnamed_addr constant [12 x i8] c"%s (%s:%d)\0A\00", align 1

; Function Attrs: mustprogress uwtable
define noundef i32 @_ZN3zmq14ipc_listener_t6acceptEv(ptr noundef nonnull align 8 dereferenceable(1592) %this) #0 align 2 {
entry:
  %retval = alloca i32, align 4
  %this.addr = alloca ptr, align 8
  %sock = alloca i32, align 4
  %errstr = alloca ptr, align 8
  %rc = alloca i32, align 4
  %errstr39 = alloca ptr, align 8
  %rc49 = alloca i32, align 4
  %errstr55 = alloca ptr, align 8
  store ptr %this, ptr %this.addr, align 8
  %this1 = load ptr, ptr %this.addr, align 8
  br label %do.body

do.body:                                          ; preds = %entry
  %_s = getelementptr inbounds %"class.zmq::stream_listener_base_t", ptr %this1, i32 0, i32 2
  %0 = load i32, ptr %_s, align 8
  %cmp = icmp ne i32 %0, -1
  %lnot = xor i1 %cmp, true
  br i1 %lnot, label %if.then, label %if.end

if.then:                                          ; preds = %do.body
  %1 = load ptr, ptr @stderr, align 8
  %call = call i32 (ptr, ptr, ...) @fprintf(ptr noundef %1, ptr noundef @.str, ptr noundef @.str.1, ptr noundef @.str.2, i32 noundef 276)
  %2 = load ptr, ptr @stderr, align 8
  %call2 = call i32 @fflush(ptr noundef %2)
  call void @_ZN3zmq9zmq_abortEPKc(ptr noundef @.str.1)
  br label %if.end

if.end:                                           ; preds = %if.then, %do.body
  br label %do.end

do.end:                                           ; preds = %if.end
  %_s3 = getelementptr inbounds %"class.zmq::stream_listener_base_t", ptr %this1, i32 0, i32 2
  %3 = load i32, ptr %_s3, align 8
  %call4 = call i32 @accept4(i32 noundef %3, ptr noundef null, ptr noundef null, i32 noundef 524288)
  store i32 %call4, ptr %sock, align 4
  %4 = load i32, ptr %sock, align 4
  %cmp5 = icmp eq i32 %4, -1
  br i1 %cmp5, label %if.then6, label %if.end31

if.then6:                                         ; preds = %do.end
  br label %do.body7

do.body7:                                         ; preds = %if.then6
  %call8 = call ptr @__errno_location() #11
  %5 = load i32, ptr %call8, align 4
  %cmp9 = icmp eq i32 %5, 11
  br i1 %cmp9, label %lor.end, label %lor.lhs.false

lor.lhs.false:                                    ; preds = %do.body7
  %call10 = call ptr @__errno_location() #11
  %6 = load i32, ptr %call10, align 4
  %cmp11 = icmp eq i32 %6, 11
  br i1 %cmp11, label %lor.end, label %lor.lhs.false12

lor.lhs.false12:                                  ; preds = %lor.lhs.false
  %call13 = call ptr @__errno_location() #11
  %7 = load i32, ptr %call13, align 4
  %cmp14 = icmp eq i32 %7, 4
  br i1 %cmp14, label %lor.end, label %lor.lhs.false15

lor.lhs.false15:                                  ; preds = %lor.lhs.false12
  %call16 = call ptr @__errno_location() #11
  %8 = load i32, ptr %call16, align 4
  %cmp17 = icmp eq i32 %8, 103
  br i1 %cmp17, label %lor.end, label %lor.lhs.false18

lor.lhs.false18:                                  ; preds = %lor.lhs.false15
  %call19 = call ptr @__errno_location() #11
  %9 = load i32, ptr %call19, align 4
  %cmp20 = icmp eq i32 %9, 71
  br i1 %cmp20, label %lor.end, label %lor.rhs

lor.rhs:                                          ; preds = %lor.lhs.false18
  %call21 = call ptr @__errno_location() #11
  %10 = load i32, ptr %call21, align 4
  %cmp22 = icmp eq i32 %10, 23
  br label %lor.end

lor.end:                                          ; preds = %lor.rhs, %lor.lhs.false18, %lor.lhs.false15, %lor.lhs.false12, %lor.lhs.false, %do.body7
  %11 = phi i1 [ true, %lor.lhs.false18 ], [ true, %lor.lhs.false15 ], [ true, %lor.lhs.false12 ], [ true, %lor.lhs.false ], [ true, %do.body7 ], [ %cmp22, %lor.rhs ]
  %lnot23 = xor i1 %11, true
  br i1 %lnot23, label %if.then24, label %if.end29

if.then24:                                        ; preds = %lor.end
  %call25 = call ptr @__errno_location() #11
  %12 = load i32, ptr %call25, align 4
  %call26 = call ptr @strerror(i32 noundef %12) #10
  store ptr %call26, ptr %errstr, align 8
  %13 = load ptr, ptr @stderr, align 8
  %14 = load ptr, ptr %errstr, align 8
  %call27 = call i32 (ptr, ptr, ...) @fprintf(ptr noundef %13, ptr noundef @.str.3, ptr noundef %14, ptr noundef @.str.2, i32 noundef 299)
  %15 = load ptr, ptr @stderr, align 8
  %call28 = call i32 @fflush(ptr noundef %15)
  %16 = load ptr, ptr %errstr, align 8
  call void @_ZN3zmq9zmq_abortEPKc(ptr noundef %16)
  br label %if.end29

if.end29:                                         ; preds = %if.then24, %lor.end
  br label %do.end30

do.end30:                                         ; preds = %if.end29
  store i32 -1, ptr %retval, align 4
  br label %return

if.end31:                                         ; preds = %do.end
  %17 = load i32, ptr %sock, align 4
  call void @_ZN3zmq26make_socket_noninheritableEi(i32 noundef %17)
  %18 = load i32, ptr %sock, align 4
  %call32 = call noundef zeroext i1 @_ZN3zmq14ipc_listener_t6filterEi(ptr noundef nonnull align 8 dereferenceable(1592) %this1, i32 noundef %18)
  br i1 %call32, label %if.end46, label %if.then33

if.then33:                                        ; preds = %if.end31
  %19 = load i32, ptr %sock, align 4
  %call34 = call i32 @close(i32 noundef %19)
  store i32 %call34, ptr %rc, align 4
  br label %do.body35

do.body35:                                        ; preds = %if.then33
  %20 = load i32, ptr %rc, align 4
  %cmp36 = icmp eq i32 %20, 0
  %lnot37 = xor i1 %cmp36, true
  br i1 %lnot37, label %if.then38, label %if.end44

if.then38:                                        ; preds = %do.body35
  %call40 = call ptr @__errno_location() #11
  %21 = load i32, ptr %call40, align 4
  %call41 = call ptr @strerror(i32 noundef %21) #10
  store ptr %call41, ptr %errstr39, align 8
  %22 = load ptr, ptr @stderr, align 8
  %23 = load ptr, ptr %errstr39, align 8
  %call42 = call i32 (ptr, ptr, ...) @fprintf(ptr noundef %22, ptr noundef @.str.3, ptr noundef %23, ptr noundef @.str.2, i32 noundef 310)
  %24 = load ptr, ptr @stderr, align 8
  %call43 = call i32 @fflush(ptr noundef %24)
  %25 = load ptr, ptr %errstr39, align 8
  call void @_ZN3zmq9zmq_abortEPKc(ptr noundef %25)
  br label %if.end44

if.end44:                                         ; preds = %if.then38, %do.body35
  br label %do.end45

do.end45:                                         ; preds = %if.end44
  store i32 -1, ptr %retval, align 4
  br label %return

if.end46:                                         ; preds = %if.end31
  %26 = load i32, ptr %sock, align 4
  %call47 = call noundef i32 @_ZN3zmq13set_nosigpipeEi(i32 noundef %26)
  %tobool = icmp ne i32 %call47, 0
  br i1 %tobool, label %if.then48, label %if.end62

if.then48:                                        ; preds = %if.end46
  %27 = load i32, ptr %sock, align 4
  %call50 = call i32 @close(i32 noundef %27)
  store i32 %call50, ptr %rc49, align 4
  br label %do.body51

do.body51:                                        ; preds = %if.then48
  %28 = load i32, ptr %rc49, align 4
  %cmp52 = icmp eq i32 %28, 0
  %lnot53 = xor i1 %cmp52, true
  br i1 %lnot53, label %if.then54, label %if.end60

if.then54:                                        ; preds = %do.body51
  %call56 = call ptr @__errno_location() #11
  %29 = load i32, ptr %call56, align 4
  %call57 = call ptr @strerror(i32 noundef %29) #10
  store ptr %call57, ptr %errstr55, align 8
  %30 = load ptr, ptr @stderr, align 8
  %31 = load ptr, ptr %errstr55, align 8
  %call58 = call i32 (ptr, ptr, ...) @fprintf(ptr noundef %30, ptr noundef @.str.3, ptr noundef %31, ptr noundef @.str.2, i32 noundef 321)
  %32 = load ptr, ptr @stderr, align 8
  %call59 = call i32 @fflush(ptr noundef %32)
  %33 = load ptr, ptr %errstr55, align 8
  call void @_ZN3zmq9zmq_abortEPKc(ptr noundef %33)
  br label %if.end60

if.end60:                                         ; preds = %if.then54, %do.body51
  br label %do.end61

do.end61:                                         ; preds = %if.end60
  store i32 -1, ptr %retval, align 4
  br label %return

if.end62:                                         ; preds = %if.end46
  %34 = load i32, ptr %sock, align 4
  store i32 %34, ptr %retval, align 4
  br label %return

return:                                           ; preds = %if.end62, %do.end61, %do.end45, %do.end30
  %35 = load i32, ptr %retval, align 4
  ret i32 %35
}