; Function Attrs: mustprogress uwtable
define noundef i32 @_ZN3zmq14ipc_listener_t6acceptEv(ptr noundef nonnull align 8 dereferenceable(1592) %this) local_unnamed_addr #0 align 2 {
entry:
  %_s = getelementptr inbounds i8, ptr %this, i64 1464
  %0 = load i32, ptr %_s, align 8
  %cmp.not = icmp eq i32 %0, -1
  br i1 %cmp.not, label %if.then, label %do.end

if.then:                                          ; preds = %entry
  %1 = load ptr, ptr @stderr, align 8
  %call = tail call i32 (ptr, ptr, ...) @fprintf(ptr noundef %1, ptr noundef nonnull @.str, ptr noundef nonnull @.str.1, ptr noundef nonnull @.str.2, i32 noundef 276) #12
  %2 = load ptr, ptr @stderr, align 8
  %call2 = tail call i32 @fflush(ptr noundef %2)
  tail call void @_ZN3zmq9zmq_abortEPKc(ptr noundef nonnull @.str.1)
  %.pre = load i32, ptr %_s, align 8
  br label %do.end

do.end:                                           ; preds = %entry, %if.then
  %3 = phi i32 [ %0, %entry ], [ %.pre, %if.then ]
  %call4 = tail call i32 @accept4(i32 noundef %3, ptr noundef null, ptr noundef null, i32 noundef 524288)
  %cmp5 = icmp eq i32 %call4, -1
  br i1 %cmp5, label %do.body7, label %if.end31

do.body7:                                         ; preds = %do.end
  %call8 = tail call ptr @__errno_location() #13
  %4 = load i32, ptr %call8, align 4
  switch i32 %4, label %lor.rhs [
    i32 11, label %return
    i32 4, label %return
    i32 103, label %return
    i32 71, label %return
    i32 23, label %return
  ]

lor.rhs:                                          ; preds = %do.body7
  %call26 = tail call ptr @strerror(i32 noundef %4) #11
  %5 = load ptr, ptr @stderr, align 8
  %call27 = tail call i32 (ptr, ptr, ...) @fprintf(ptr noundef %5, ptr noundef nonnull @.str.3, ptr noundef %call26, ptr noundef nonnull @.str.2, i32 noundef 299) #12
  br label %return.sink.split

if.end31:                                         ; preds = %do.end
  tail call void @_ZN3zmq26make_socket_noninheritableEi(i32 noundef %call4)
  %call32 = tail call noundef zeroext i1 @_ZN3zmq14ipc_listener_t6filterEi(ptr noundef nonnull align 8 dereferenceable(1592) %this, i32 noundef %call4)
  br i1 %call32, label %if.end46, label %if.then33

if.then33:                                        ; preds = %if.end31
  %call34 = tail call i32 @close(i32 noundef %call4)
  %cmp36.not = icmp eq i32 %call34, 0
  br i1 %cmp36.not, label %return, label %if.then38

if.then38:                                        ; preds = %if.then33
  %call40 = tail call ptr @__errno_location() #13
  %6 = load i32, ptr %call40, align 4
  %call41 = tail call ptr @strerror(i32 noundef %6) #11
  %7 = load ptr, ptr @stderr, align 8
  %call42 = tail call i32 (ptr, ptr, ...) @fprintf(ptr noundef %7, ptr noundef nonnull @.str.3, ptr noundef %call41, ptr noundef nonnull @.str.2, i32 noundef 310) #12
  br label %return.sink.split

if.end46:                                         ; preds = %if.end31
  %call47 = tail call noundef i32 @_ZN3zmq13set_nosigpipeEi(i32 noundef %call4)
  %tobool.not = icmp eq i32 %call47, 0
  br i1 %tobool.not, label %return, label %if.then48

if.then48:                                        ; preds = %if.end46
  %call50 = tail call i32 @close(i32 noundef %call4)
  %cmp52.not = icmp eq i32 %call50, 0
  br i1 %cmp52.not, label %return, label %if.then54

if.then54:                                        ; preds = %if.then48
  %call56 = tail call ptr @__errno_location() #13
  %8 = load i32, ptr %call56, align 4
  %call57 = tail call ptr @strerror(i32 noundef %8) #11
  %9 = load ptr, ptr @stderr, align 8
  %call58 = tail call i32 (ptr, ptr, ...) @fprintf(ptr noundef %9, ptr noundef nonnull @.str.3, ptr noundef %call57, ptr noundef nonnull @.str.2, i32 noundef 321) #12
  br label %return.sink.split

return.sink.split:                                ; preds = %lor.rhs, %if.then38, %if.then54
  %call57.sink = phi ptr [ %call57, %if.then54 ], [ %call41, %if.then38 ], [ %call26, %lor.rhs ]
  %10 = load ptr, ptr @stderr, align 8
  %call59 = tail call i32 @fflush(ptr noundef %10)
  tail call void @_ZN3zmq9zmq_abortEPKc(ptr noundef %call57.sink)
  br label %return

return:                                           ; preds = %return.sink.split, %do.body7, %if.end46, %if.then48, %if.then33, %do.body7, %do.body7, %do.body7, %do.body7
  %retval.0 = phi i32 [ -1, %do.body7 ], [ -1, %do.body7 ], [ -1, %do.body7 ], [ -1, %do.body7 ], [ -1, %if.then33 ], [ -1, %if.then48 ], [ %call4, %if.end46 ], [ -1, %do.body7 ], [ -1, %return.sink.split ]
  ret i32 %retval.0
}